; Function Attrs: mustprogress uwtable
define dso_local void @_ZN21cmLocalNinjaGeneratorC2EP17cmGlobalGeneratorP10cmMakefile(ptr noundef nonnull align 8 dereferenceable(952) %0, ptr noundef %1, ptr noundef %2) unnamed_addr #3 align 2 personality ptr @__gxx_personality_v0 {
  tail call void @_ZN22cmLocalCommonGeneratorC2EP17cmGlobalGeneratorP10cmMakefile(ptr noundef nonnull align 8 dereferenceable(848) %0, ptr noundef %1, ptr noundef %2)
  store ptr getelementptr inbounds ({ [25 x ptr] }, ptr @_ZTV21cmLocalNinjaGenerator, i64 0, i32 0, i64 2), ptr %0, align 8
  %4 = getelementptr inbounds i8, ptr %0, i64 848
  tail call void @_ZNSt7__cxx1112basic_stringIcSt11char_traitsIcESaIcEEC1Ev(ptr noundef nonnull align 8 dereferenceable(32) %4) #22
  %5 = getelementptr inbounds i8, ptr %0, i64 888
  store i32 0, ptr %5, align 8
  %6 = getelementptr inbounds i8, ptr %0, i64 896
  store ptr null, ptr %6, align 8
  %7 = getelementptr inbounds i8, ptr %0, i64 904
  store ptr %5, ptr %7, align 8
  %8 = getelementptr inbounds i8, ptr %0, i64 912
  store ptr %5, ptr %8, align 8
  %9 = getelementptr inbounds i8, ptr %0, i64 920
  tail call void @llvm.memset.p0.i64(ptr noundef nonnull align 8 dereferenceable(32) %9, i8 0, i64 32, i1 false)
  ret void
}